; Function Attrs: mustprogress uwtable
define internal void @_ZL17init_output_mergePK10gmx_mtop_tP18gmx_ana_selvalue_tPv(ptr readnone captures(none) %0, ptr noundef readonly captures(none) %1, ptr noundef %2) #0 {
  %4 = getelementptr inbounds nuw i8, ptr %2, i64 24
  %5 = load i32, ptr %4, align 8, !tbaa !24
  %6 = getelementptr inbounds nuw i8, ptr %2, i64 176
  %7 = load i32, ptr %6, align 8, !tbaa !25
  %.not.i = icmp eq i32 %5, %7
  %8 = getelementptr inbounds nuw i8, ptr %1, i64 8
  %9 = load ptr, ptr %8, align 8, !tbaa !17
  %10 = getelementptr inbounds nuw i8, ptr %9, i64 24
  %..i = select i1 %.not.i, i32 %5, i32 0
  store i32 %..i, ptr %10, align 8, !tbaa !26
  %11 = load ptr, ptr %8, align 8, !tbaa !17
  %12 = getelementptr inbounds nuw i8, ptr %2, i64 48
  %13 = load i32, ptr %12, align 8, !tbaa !23
  %14 = getelementptr inbounds nuw i8, ptr %2, i64 200
  %15 = load i32, ptr %14, align 8, !tbaa !23
  %16 = add nsw i32 %15, %13
  %17 = getelementptr inbounds nuw i8, ptr %2, i64 112
  %18 = load i32, ptr %17, align 8, !tbaa !27
  %19 = getelementptr inbounds nuw i8, ptr %2, i64 264
  %20 = load i32, ptr %19, align 8, !tbaa !28
  %21 = add nsw i32 %20, %18
  %22 = getelementptr inbounds nuw i8, ptr %2, i64 8
  %23 = load ptr, ptr %22, align 8, !tbaa !29
  %24 = icmp ne ptr %23, null
  %25 = getelementptr inbounds nuw i8, ptr %2, i64 16
  %26 = load ptr, ptr %25, align 8, !tbaa !30
  %27 = icmp ne ptr %26, null
  tail call void @_Z30gmx_ana_pos_reserve_for_appendP13gmx_ana_pos_tiibb(ptr noundef %11, i32 noundef %16, i32 noundef %21, i1 noundef zeroext %24, i1 noundef zeroext %27)
  %28 = load ptr, ptr %8, align 8, !tbaa !17
  tail call void @_Z22gmx_ana_pos_empty_initP13gmx_ana_pos_t(ptr noundef %28)
  %29 = getelementptr inbounds nuw i8, ptr %2, i64 152
  %30 = load i32, ptr %14, align 8, !tbaa !23
  %31 = icmp sgt i32 %30, 0
  br i1 %31, label %.preheader.lr.ph, label %._crit_edge21

.preheader.lr.ph:                                 ; preds = %3
  %32 = getelementptr inbounds nuw i8, ptr %2, i64 304
  br label %.preheader

.preheader:                                       ; preds = %.preheader.lr.ph, %._crit_edge
  %.01720 = phi i32 [ 0, %.preheader.lr.ph ], [ %43, %._crit_edge ]
  %33 = load i32, ptr %32, align 8, !tbaa !4
  %34 = icmp sgt i32 %33, 0
  br i1 %34, label %.lr.ph, label %._crit_edge

.lr.ph:                                           ; preds = %.preheader, %.lr.ph
  %35 = phi i32 [ %40, %.lr.ph ], [ %33, %.preheader ]
  %.019 = phi i32 [ %39, %.lr.ph ], [ 0, %.preheader ]
  %36 = load ptr, ptr %8, align 8, !tbaa !17
  %37 = mul nsw i32 %35, %.01720
  %38 = add nsw i32 %37, %.019
  tail call void @_Z23gmx_ana_pos_append_initP13gmx_ana_pos_tS0_i(ptr noundef %36, ptr noundef nonnull %2, i32 noundef %38)
  %39 = add nuw nsw i32 %.019, 1
  %40 = load i32, ptr %32, align 8, !tbaa !4
  %41 = icmp slt i32 %39, %40
  br i1 %41, label %.lr.ph, label %._crit_edge, !llvm.loop !31

._crit_edge:                                      ; preds = %.lr.ph, %.preheader
  %42 = load ptr, ptr %8, align 8, !tbaa !17
  tail call void @_Z23gmx_ana_pos_append_initP13gmx_ana_pos_tS0_i(ptr noundef %42, ptr noundef nonnull %29, i32 noundef %.01720)
  %43 = add nuw nsw i32 %.01720, 1
  %44 = load i32, ptr %14, align 8, !tbaa !23
  %45 = icmp slt i32 %43, %44
  br i1 %45, label %.preheader, label %._crit_edge21, !llvm.loop !33

._crit_edge21:                                    ; preds = %._crit_edge, %3
  ret void
}